(lp0
(lp1
I0
aI0
aI0
aI10
aI1
aF0.0001
aa(lp2
F1.00497989463784
aF5.03322118466314e-06
aF1e-05
aF10.1
aF0.9475488408865009
aF0.0001
aa(lp3
F2.0196973495702575
aF2.026187528170685e-05
aF2e-05
aF10.194754884088649
aF0.9897308131131836
aF0.0001
aa(lp4
F3.044101006907296
aF4.588023625410694e-05
aF3.0000000000000004e-05
aF10.293727965399967
aF1.0334752320479588
aF0.0001
aa(lp5
F4.07862050326448
aF8.209702798851288e-05
aF4e-05
aF10.397075488604763
aF0.9892161931879644
aF0.0001
aa(lp6
F5.123253229669881
aF0.0001291137244227651
aF5e-05
aF10.495997107923559
aF1.0023000610625472
aF0.0001
aa(lp7
F6.177843358336335
aF0.0001871245239660116
aF6e-05
aF10.596227114029814
aF0.900961934194498
aF0.0001
aa(lp8
F7.241949606641709
aF0.00025629893756005836
aF7.000000000000001e-05
aF10.686323307449264
aF0.8762407899966456
aF0.0001
aa(lp9
F8.314941669172175
aF0.0003367806367376
aF8e-05
aF10.77394738644893
aF0.880524953522626
aF0.0001
aa(lp10
F9.396717396350239
aF0.0004287389135715062
aF9e-05
aF10.861999881801193
aF0.9273147959713028
aF0.0001
aa(lp11
F10.487532145466622
aF0.0005323740487234671
aF0.0001
aF10.954731361398323
aF0.8476591979935006
aF0.0001
aa(lp12
F11.587221573493867
aF0.0006478484863113402
aF0.00011
aF11.039497281197674
aF0.9666125889689888
aF0.0001
aa(lp13
F12.695982174875194
aF0.0007753640302704022
aF0.00012
aF11.136158540094574
aF1.0056234222118756
aF0.0001
aa(lp14
F13.814603757576315
aF0.000915200096951444
aF0.00013000000000000002
aF11.236720882315762
aF0.9212928770850152
aF0.0001
aa(lp15
F14.942859729609763
aF0.0010675223464226978
aF0.00014000000000000001
aF11.328850170024264
aF0.962926901147135
aF0.0001
aa(lp16
F16.080536621561773
aF0.0012324935073993997
aF0.00015000000000000001
aF11.425142860138978
aF0.9505013853393735
aF0.0001
aa(lp17
F17.227780458146267
aF0.0014103242063355536
aF0.00016
aF11.520192998672915
aF0.9500195641616013
aF0.0001
aa(lp18
F18.38452669228754
aF0.001601195260142625
aF0.00017
aF11.615194955089075
aF0.8767928509048324
aF0.0001
aa(lp19
F19.550406815027245
aF0.001805231593517432
aF0.00018
aF11.702874240179558
aF0.8153031440268539
aF0.0001
aa(lp20
F20.724747256425577
aF0.002022491372743197
aF0.00019
aF11.784404554582244
aF0.8119550063085732
aF0.0001
aa(lp21
F21.907223815638936
aF0.0022530810670543682
aF0.0002
aF11.8656000552131
aF0.8995087082808135
aF0.0001
aa(lp22
F23.098257514124477
aF0.002497250474346009
aF0.00021
aF11.955550926041182
aF0.9175738913053516
aF0.0001
aa(lp23
F24.298376441106488
aF0.002755283687852493
aF0.00022
aF12.047308315171717
aF0.8710778334820964
aF0.0001
aa(lp24
F25.50743845757392
aF0.0030273299179135876
aF0.00023
aF12.134416098519926
aF0.9375591917713963
aF0.0001
aa(lp25
F26.725543470498607
aF0.003313592421266424
aF0.00024
aF12.228172017697066
aF0.9565774045240582
aF0.0001
aa(lp26
F27.953118962706487
aF0.003614356388878121
aF0.00025
aF12.323829758149472
aF0.8073658791954026
aF0.0001
aa(lp27
F29.18951401235449
aF0.003929643859427565
aF0.00026000000000000003
aF12.404566346069013
aF0.9205719363089712
aF0.0001
aa(lp28
F30.434548555971542
aF0.0042595856962101995
aF0.00027000000000000006
aF12.49662353969991
aF0.8984895470131069
aF0.0001
aa(lp29
F31.68867823107638
aF0.004604478848130546
aF0.0002800000000000001
aF12.58647249440122
aF0.8637244587022255
aF0.0001
aa(lp30
F32.951618792952935
aF0.0049644241250009005
aF0.0002900000000000001
aF12.672844940271442
aF0.8117562284516862
aF0.0001
aa(lp31
F34.222936586058715
aF0.005339469645461806
aF0.00030000000000000014
aF12.754020563116612
aF0.7512643537683957
aF0.0001
aa(lp32
F35.50206930478014
aF0.00572961143328132
aF0.00031000000000000016
aF12.829146998493451
aF0.7957611904408731
aF0.0001
aa(lp33
F36.78893700355613
aF0.0061349813790159006
aF0.0003200000000000002
aF12.908723117537539
aF0.8659926613716395
aF0.0001
aa(lp34
F38.08411332315063
aF0.006555920931758229
aF0.0003300000000000002
aF12.995322383674702
aF0.8766757498037256
aF0.0001
aa(lp35
F39.38800279853862
aF0.006992731233480866
aF0.00034000000000000024
aF13.082989958655075
aF0.8937841118268643
aF0.0001
aa(lp36
F40.70074437135278
aF0.007445634541184009
aF0.00035000000000000027
aF13.172368369837761
aF0.8451937461362496
aF0.0001
aa(lp37
F42.02218067062682
aF0.007914751464526129
aF0.0003600000000000003
aF13.256887744451387
aF0.8921322057100094
aF0.0001
aa(lp38
F43.35230341426259
aF0.008400253753959355
aF0.0003700000000000003
aF13.346100965022387
aF0.8956636842467811
aF0.0001
aa(lp39
F44.69136496200863
aF0.008902409321324268
aF0.00038000000000000035
aF13.435667333447066
aF0.9596189472212395
aF0.0001
aa(lp40
F46.03970272609828
aF0.009421527402000774
aF0.00039000000000000037
aF13.53162922816919
aF1.0837149169734726
aF0.0001
aa.