(lp0
(lp1
I0
aI0
aI0
aI10
aI0
aF0.0001
aa(lp2
F0.9999800002833296
aF4.9998934764384325e-06
aF1e-05
aF10.0
aF-0.07421676437281462
aF0.0001
aa(lp3
F1.999588923759235
aF1.9993421107366076e-05
aF2e-05
aF9.992578323562718
aF0.12716147586117035
aF0.0001
aa(lp4
F2.999462566294282
aF4.4991324728606394e-05
aF3.0000000000000004e-05
aF10.005294471148835
aF-0.010266505763137888
aF0.0001
aa(lp5
F3.99992067092884
aF8.000725288081356e-05
aF4e-05
aF10.00426782057252
aF-0.05333044284821899
aF0.0001
aa(lp6
F5.000060796354582
aF0.0001250131137063846
aF5e-05
aF9.9989347762877
aF0.07919887002181222
aF0.0001
aa(lp7
F6.000330261563663
aF0.00018002862096290625
aF6e-05
aF10.00685466328988
aF0.059602053212925866
aF0.0001
aa(lp8
F7.00129371608114
aF0.00024509175031658996
aF7.000000000000001e-05
aF10.012814868611173
aF0.02637953223599905
aF0.0001
aa(lp9
F8.002687069846022
aF0.0003201964837187071
aF8e-05
aF10.015452821834772
aF-0.14034974397130423
aF0.0001
aa(lp10
F9.003510580774572
aF0.0004052653022643108
aF9e-05
aF10.001417847437642
aF0.07334054777872902
aF0.0001
aa(lp11
F10.00399905391176
aF0.0005003122794631612
aF0.0001
aF10.008751902215515
aF0.0038710281091841876
aF0.0001
aa(lp12
F11.004873576182815
aF0.0006054041474925335
aF0.00011
aF10.009139005026434
aF0.050401015678934014
aF0.0001
aa(lp13
F12.006019451266486
aF0.0007205363479240327
aF0.00012
aF10.014179106594327
aF-0.02909748490962586
aF0.0001
aa(lp14
F13.007271841445439
aF0.0008456926374258185
aF0.00013000000000000002
aF10.011269358103364
aF-0.011691484494675466
aF0.0001
aa(lp15
F14.008320289468355
aF0.0009808340967770231
aF0.00014000000000000001
aF10.010100209653897
aF-0.016783480003091784
aF0.0001
aa(lp16
F15.009226364297236
aF0.0011259653007110997
aF0.00015000000000000001
aF10.008421861653588
aF-0.024399507255645533
aF0.0001
aa(lp17
F16.00992652671056
aF0.0012810736388325628
aF0.00016
aF10.005981910928023
aF-0.05220042697048132
aF0.0001
aa(lp18
F17.01024369586115
aF0.0014461255400854888
aF0.00017
aF10.000761868230974
aF-0.008291710633230578
aF0.0001
aa(lp19
F18.01025840831855
aF0.0016211280436599289
aF0.00018
aF9.999932697167651
aF-0.011280736230100327
aF0.0001
aa(lp20
F19.010175258828717
aF0.001806112549498027
aF0.00019
aF9.998804623544642
aF0.009953368369596635
aF0.0001
aa(lp21
F20.010085470684917
aF0.0020010951342388735
aF0.0002
aF9.999799960381601
aF0.0482006471838857
aF0.0001
aa(lp22
F21.01028644482988
aF0.0022061367194240594
aF0.00021
aF10.00462002509999
aF0.009271954163884672
aF0.0001
aa(lp23
F22.0107747739879
aF0.0024212417900880425
aF0.00022
aF10.005547220516378
aF0.01839530919715202
aF0.0001
aa(lp24
F23.011401434515093
aF0.002646382926205141
aF0.00023
aF10.007386751436094
aF-0.004437155984803232
aF0.0001
aa(lp25
F24.012097882265863
aF0.002881546586890435
aF0.00024
aF10.006943035837613
aF0.03453103444997755
aF0.0001
aa(lp26
F25.012944793452206
aF0.0031267543527989045
aF0.00025
aF10.01039613928261
aF-0.06751843729685472
aF0.0001
aa(lp27
F26.013626769041405
aF0.0033819277109464413
aF0.00026000000000000003
aF10.003644295552926
aF0.01785277762342964
aF0.0001
aa(lp28
F27.01406041872739
aF0.0036470427677738073
aF0.00027000000000000006
aF10.005429573315268
aF-0.03365224978453082
aF0.0001
aa(lp29
F28.014415069645427
aF0.003922140015050613
aF0.0002800000000000001
aF10.002064348336816
aF-0.027789749518632546
aF0.0001
aa(lp30
F29.01446251411892
aF0.004207153341906999
aF0.0002900000000000001
aF9.999285373384954
aF0.010657717531230798
aF0.0001
aa(lp31
F30.0144242972318
aF0.004502142142206487
aF0.00030000000000000014
aF10.000351145138076
aF-0.009890904906057688
aF0.0001
aa(lp32
F31.01438991123138
aF0.004807131599640746
aF0.00031000000000000016
aF9.99936205464747
aF-0.01943145606351877
aF0.0001
aa(lp33
F32.01420891315142
aF0.005122074440891209
aF0.0003200000000000002
aF9.997418909041118
aF-0.02523209498031541
aF0.0001
aa(lp34
F33.01380459852336
aF0.005446942844912465
aF0.0003300000000000002
aF9.994895699543086
aF-0.006459442733402556
aF0.0001
aa(lp35
F34.013241826319934
aF0.005781754274464125
aF0.00034000000000000024
aF9.994249755269745
aF0.04011507845062065
aF0.0001
aa(lp36
F35.012847325520184
aF0.006126618553472234
aF0.00035000000000000027
aF9.998261263114808
aF0.013784074585063203
aF0.0001
aa(lp37
F36.01272231157169
aF0.006481574287825261
aF0.0003600000000000003
aF9.999639670573314
aF0.019065725781997212
aF0.0001
aa(lp38
F37.0127615395183
aF0.006846588787279231
aF0.0003700000000000003
aF10.001546243151514
aF-0.01073797351806171
aF0.0001
aa(lp39
F38.01284240190384
aF0.007221619034601606
aF0.00038000000000000035
aF10.000472445799709
aF-0.07873293820076242
aF0.0001
aa(lp40
F39.012475916327915
aF0.007606477320203463
aF0.00039000000000000037
aF9.992599151979633
aF-0.01217113368979333
aF0.0001
aa.