(lp0
(lp1
I0
aI0
aI0
aI10
aI0
aF0.0001
aa(lp2
F0.9999800002833296
aF4.9998934764384325e-06
aF1e-05
aF10.0
aF0.09007493580066536
aF0.0001
aa(lp3
F2.000410365509574
aF2.0007109013089164e-05
aF2e-05
aF10.009007493580066
aF0.011799990013529315
aF0.0001
aa(lp4
F3.0013500955559227
aF4.503068939783904e-05
aF3.0000000000000004e-05
aF10.01018749258142
aF-0.019803009012941183
aF0.0001
aa(lp5
F4.00224981101573
aF8.006201831271374e-05
aF4e-05
aF10.008207191680125
aF0.045111560732898674
aF0.0001
aa(lp6
F5.0032760668181195
aF0.00012510857326001945
aF5e-05
aF10.012718347753415
aF-0.01932083395189709
aF0.0001
aa(lp7
F6.004431272792748
aF0.00018017194854622276
aF6e-05
aF10.010786264358225
aF-0.021115938226109895
aF0.0001
aa(lp8
F7.005384298014329
aF0.000245233705606923
aF7.000000000000001e-05
aF10.008674670535614
aF0.10729909794018809
aF0.0001
aa(lp9
F8.006768228602809
aF0.0003203384054672063
aF8e-05
aF10.019404580329633
aF-0.05614280181982109
aF0.0001
aa(lp10
F9.008407935582822
aF0.0004054772948519038
aF9e-05
aF10.013790300147651
aF0.15634159916657553
aF0.0001
aa(lp11
F10.010548624846338
aF0.0005006819487390174
aF0.0001
aF10.029424460064309
aF0.0024325144518374804
aF0.0001
aa(lp12
F11.013483169104493
aF0.0006059900804897826
aF0.00011
aF10.029667711509493
aF-0.006654986146959645
aF0.0001
aa(lp13
F12.016396600378746
aF0.0007213251048438216
aF0.00012
aF10.029002212894797
aF-0.01994550107300624
aF0.0001
aa(lp14
F13.019177030375314
aF0.0008466724679856538
aF0.00013000000000000002
aF10.027007662787497
aF-0.033471029487196755
aF0.0001
aa(lp15
F14.021690382135997
aF0.0009820115029894043
aF0.00014000000000000001
aF10.023660559838778
aF-0.019139607079834593
aF0.0001
aa(lp16
F15.023940684302023
aF0.0011273376244915695
aF0.00015000000000000001
aF10.021746599130793
aF-0.059576570685466325
aF0.0001
aa(lp17
F16.02579741264455
aF0.00128262491329413
aF0.00016
aF10.015788942062247
aF-0.10098610057364453
aF0.0001
aa(lp18
F17.02685134159014
aF0.0014477980032256712
aF0.00017
aF10.005690332004884
aF-0.03699093838166463
aF0.0001
aa(lp19
F18.02721539729688
aF0.0016228613888072303
aF0.00018
aF10.001991238166717
aF0.015393114404459465
aF0.0001
aa(lp20
F19.027471464463687
aF0.001807908875071078
aF0.00019
aF10.003530549607163
aF0.07415970610996751
aF0.0001
aa(lp21
F20.02817528602953
aF0.002003046757274575
aF0.0002
aF10.010946520218159
aF0.07696157110079561
aF0.0001
aa(lp22
F21.029634695008543
aF0.0022083465725685754
aF0.00021
aF10.018642677328238
aF0.07987250003340368
aF0.0001
aa(lp23
F22.031878256867838
aF0.0024238296296735695
aF0.00022
aF10.026629927331578
aF0.006925985981967345
aF0.0001
aa(lp24
F23.034555800391118
aF0.002649432125859493
aF0.00023
aF10.027322525929776
aF0.026853421224843212
aF0.0001
aa(lp25
F24.037402235295843
aF0.0028851012692020384
aF0.00024
aF10.03000786805226
aF0.00878514321431325
aF0.0001
aa(lp26
F25.04042685708532
aF0.003130842391603442
aF0.00025
aF10.030886382373692
aF0.022031563204982247
aF0.0001
aa(lp27
F26.043605556707917
aF0.0033866531572476614
aF0.00026000000000000003
aF10.03308953869419
aF-0.08847590359919444
aF0.0001
aa(lp28
F27.046452039490052
aF0.003652406726842897
aF0.00027000000000000006
aF10.024241948334272
aF-0.02488436403354601
aF0.0001
aa(lp29
F28.048731728671797
aF0.003928033424937127
aF0.0002800000000000001
aF10.021753511930918
aF-0.007125861453605344
aF0.0001
aa(lp30
F29.05085136740021
aF0.004213637463043633
aF0.0002900000000000001
aF10.021040925785558
aF-0.02654845402184579
aF0.0001
aa(lp31
F30.05280263454667
aF0.0045092128890962336
aF0.00030000000000000014
aF10.018386080383372
aF0.018061658077977487
aF0.0001
aa(lp32
F31.054711466001454
aF0.004814795267264218
aF0.00031000000000000016
aF10.02019224619117
aF0.007645411517049762
aF0.0001
aa(lp33
F32.05674882713992
aF0.0051304370992418585
aF0.0003200000000000002
aF10.020956787342875
aF-0.060711283985669766
aF0.0001
aa(lp34
F33.05852086103735
aF0.005456012521753901
aF0.0003300000000000002
aF10.014885658944308
aF0.04751397636479897
aF0.0001
aa(lp35
F34.060226906679645
aF0.005791584459026583
aF0.00034000000000000024
aF10.019637056580788
aF0.03282754516046948
aF0.0001
aa(lp36
F35.06233464795831
aF0.006137311925271143
aF0.00035000000000000027
aF10.022919811096834
aF-4.755098579252212e-05
aF0.0001
aa(lp37
F36.06460628261819
aF0.00649311835664546
aF0.0003600000000000003
aF10.022915055998254
aF-0.003909832456092964
aF0.0001
aa(lp38
F37.06685812718275
aF0.006858940288316652
aF0.0003700000000000003
aF10.022524072752645
aF0.0366924350077619
aF0.0001
aa(lp39
F38.06927387771992
aF0.007234846495283951
aF0.00038000000000000035
aF10.026193316253421
aF-0.03734687649856338
aF0.0001
aa(lp40
F39.07168635316468
aF0.00762077502203215
aF0.00039000000000000037
aF10.022458628603564
aF-0.06486362499193803
aF0.0001
aa.